; Function Attrs: mustprogress nounwind uwtable
define void @_ZN5arrow8internal14FileDescriptorD2Ev(ptr noundef nonnull readonly align 4 captures(none) dereferenceable(4) %0) unnamed_addr #5 align 2 personality ptr @__gxx_personality_v0 {
  %2 = load atomic i32, ptr %0 seq_cst, align 4
  %.not = icmp eq i32 %2, -1
  br i1 %.not, label %4, label %3

3:                                                ; preds = %1
  invoke void @_ZN5arrow8internal14FileDescriptor19CloseFromDestructorEi(i32 noundef %2)
          to label %4 unwind label %5

4:                                                ; preds = %3, %1
  ret void

5:                                                ; preds = %3
  %6 = landingpad { ptr, i32 }
          catch ptr null
  %7 = extractvalue { ptr, i32 } %6, 0
  tail call void @__clang_call_terminate(ptr %7) #43
  unreachable
}